target datalayout = "e-m:e-p270:32:32-p271:32:32-p272:64:64-i64:64-i128:128-f80:128-n8:16:32:64-S128"
target triple = "x86_64-pc-linux-gnu"

%struct.Abc_Obj_t_ = type { ptr, ptr, i32, i32, %struct.Vec_Int_t_, %struct.Vec_Int_t_, %union.anon, %union.anon.0 }
%struct.Vec_Int_t_ = type { i32, i32, ptr }
%union.anon = type { ptr }
%union.anon.0 = type { ptr }
%struct.Vec_Ptr_t_ = type { i32, i32, ptr }
%struct.Abc_Ntk_t_ = type { i32, i32, ptr, ptr, ptr, ptr, ptr, ptr, ptr, ptr, ptr, ptr, ptr, [11 x i32], i32, i32, i32, i32, ptr, i32, ptr, ptr, i32, i32, i32, double, i32, %struct.Vec_Int_t_, ptr, ptr, ptr, ptr, ptr, float, i32, ptr, ptr, ptr, ptr, ptr, ptr, ptr, ptr, ptr, ptr, ptr, ptr, ptr, ptr, ptr, ptr, ptr, ptr, ptr, ptr, ptr }
%struct.DdManager = type { %struct.DdNode, ptr, ptr, ptr, ptr, ptr, ptr, ptr, i32, i32, double, double, double, i32, i32, i32, i32, i32, i32, ptr, ptr, %struct.DdSubtable, i32, i32, i32, i32, i32, i32, i32, double, i32, i32, i32, ptr, i64, double, i32, ptr, ptr, ptr, ptr, ptr, ptr, ptr, i32, ptr, ptr, ptr, ptr, ptr, ptr, i32, i32, i32, double, i32, i32, i32, i32, double, double, i32, i32, i32, i32, i32, i32, i32, i32, i32, ptr, ptr, i32, i32, i32, i32, i32, i32, ptr, ptr, ptr, ptr, ptr, ptr, ptr, ptr, i32, i64, i64, i64, i32, i64, i64, double, double, double, double, double, double, i32, ptr, ptr, i64 }
%struct.DdNode = type { i32, i32, ptr, %union.anon.1, i64 }
%union.anon.1 = type { %struct.DdChildren }
%struct.DdChildren = type { ptr, ptr }
%struct.DdSubtable = type { ptr, i32, i32, i32, i32, i32, i32, i32, i32, i32, i32, i32 }
%struct.Vec_Att_t_ = type { i32, ptr, ptr, ptr, ptr, ptr }

@.str.13 = private unnamed_addr constant [41 x i8] c"Construction of global BDDs has failed.\0A\00", align 1

; Function Attrs: nounwind uwtable
define internal void @Vec_AttGrow(ptr noundef %0, i32 noundef %1) #0 {
  %3 = alloca ptr, align 8
  %4 = alloca i32, align 4
  store ptr %0, ptr %3, align 8
  store i32 %1, ptr %4, align 4
  %5 = load ptr, ptr %3, align 8
  %6 = getelementptr inbounds %struct.Vec_Att_t_, ptr %5, i32 0, i32 0
  %7 = load i32, ptr %6, align 8
  %8 = load i32, ptr %4, align 4
  %9 = icmp sge i32 %7, %8
  br i1 %9, label %10, label %11

10:                                               ; preds = %2
  br label %51

11:                                               ; preds = %2
  %12 = load ptr, ptr %3, align 8
  %13 = getelementptr inbounds %struct.Vec_Att_t_, ptr %12, i32 0, i32 1
  %14 = load ptr, ptr %13, align 8
  %15 = icmp ne ptr %14, null
  br i1 %15, label %16, label %24

16:                                               ; preds = %11
  %17 = load ptr, ptr %3, align 8
  %18 = getelementptr inbounds %struct.Vec_Att_t_, ptr %17, i32 0, i32 1
  %19 = load ptr, ptr %18, align 8
  %20 = load i32, ptr %4, align 4
  %21 = sext i32 %20 to i64
  %22 = mul i64 8, %21
  %23 = call ptr @realloc(ptr noundef %19, i64 noundef %22) #11
  br label %29

24:                                               ; preds = %11
  %25 = load i32, ptr %4, align 4
  %26 = sext i32 %25 to i64
  %27 = mul i64 8, %26
  %28 = call noalias ptr @malloc(i64 noundef %27) #8
  br label %29

29:                                               ; preds = %24, %16
  %30 = phi ptr [ %23, %16 ], [ %28, %24 ]
  %31 = load ptr, ptr %3, align 8
  %32 = getelementptr inbounds %struct.Vec_Att_t_, ptr %31, i32 0, i32 1
  store ptr %30, ptr %32, align 8
  %33 = load ptr, ptr %3, align 8
  %34 = getelementptr inbounds %struct.Vec_Att_t_, ptr %33, i32 0, i32 1
  %35 = load ptr, ptr %34, align 8
  %36 = load ptr, ptr %3, align 8
  %37 = getelementptr inbounds %struct.Vec_Att_t_, ptr %36, i32 0, i32 0
  %38 = load i32, ptr %37, align 8
  %39 = sext i32 %38 to i64
  %40 = getelementptr inbounds ptr, ptr %35, i64 %39
  %41 = load i32, ptr %4, align 4
  %42 = load ptr, ptr %3, align 8
  %43 = getelementptr inbounds %struct.Vec_Att_t_, ptr %42, i32 0, i32 0
  %44 = load i32, ptr %43, align 8
  %45 = sub nsw i32 %41, %44
  %46 = sext i32 %45 to i64
  %47 = mul i64 8, %46
  call void @llvm.memset.p0.i64(ptr align 8 %40, i8 0, i64 %47, i1 false)
  %48 = load i32, ptr %4, align 4
  %49 = load ptr, ptr %3, align 8
  %50 = getelementptr inbounds %struct.Vec_Att_t_, ptr %49, i32 0, i32 0
  store i32 %48, ptr %50, align 8
  br label %51

51:                                               ; preds = %29, %10
  ret void
}

; Function Attrs: nounwind uwtable
define ptr @Abc_NtkBddDecTry(ptr noundef %0, ptr noundef %1, ptr noundef %2, i32 noundef %3, i32 noundef %4, i32 noundef %5, i32 noundef %6) #0 {
  %8 = alloca ptr, align 8
  %9 = alloca ptr, align 8
  %10 = alloca ptr, align 8
  %11 = alloca i32, align 4
  %12 = alloca i32, align 4
  %13 = alloca i32, align 4
  %14 = alloca i32, align 4
  %15 = alloca ptr, align 8
  store ptr %0, ptr %8, align 8
  store ptr %1, ptr %9, align 8
  store ptr %2, ptr %10, align 8
  store i32 %3, ptr %11, align 4
  store i32 %4, ptr %12, align 4
  store i32 %5, ptr %13, align 4
  store i32 %6, ptr %14, align 4
  %16 = load ptr, ptr %9, align 8
  %17 = load ptr, ptr %10, align 8
  %18 = load i32, ptr %12, align 4
  %19 = load i32, ptr %13, align 4
  %20 = load i32, ptr %14, align 4
  %21 = call ptr @Abc_NtkBddDecCharFunc(ptr noundef %16, ptr noundef %17, i32 noundef %18, i32 noundef %19, i32 noundef %20)
  store ptr %21, ptr %15, align 8
  %22 = load ptr, ptr %15, align 8
  call void @Cudd_Ref(ptr noundef %22)
  %23 = load ptr, ptr %15, align 8
  call void @Cudd_Deref(ptr noundef %23)
  %24 = load ptr, ptr %15, align 8
  ret ptr %24
}

; Function Attrs: nounwind uwtable
define internal ptr @Vec_AttEntry(ptr noundef %0, i32 noundef %1) #0 {
  %3 = alloca ptr, align 8
  %4 = alloca i32, align 4
  store ptr %0, ptr %3, align 8
  store i32 %1, ptr %4, align 4
  %5 = load i32, ptr %4, align 4
  %6 = load ptr, ptr %3, align 8
  %7 = getelementptr inbounds %struct.Vec_Att_t_, ptr %6, i32 0, i32 0
  %8 = load i32, ptr %7, align 8
  %9 = icmp sge i32 %5, %8
  br i1 %9, label %10, label %28

10:                                               ; preds = %2
  %11 = load ptr, ptr %3, align 8
  %12 = load ptr, ptr %3, align 8
  %13 = getelementptr inbounds %struct.Vec_Att_t_, ptr %12, i32 0, i32 0
  %14 = load i32, ptr %13, align 8
  %15 = mul nsw i32 2, %14
  %16 = load i32, ptr %4, align 4
  %17 = icmp sgt i32 %15, %16
  br i1 %17, label %18, label %23

18:                                               ; preds = %10
  %19 = load ptr, ptr %3, align 8
  %20 = getelementptr inbounds %struct.Vec_Att_t_, ptr %19, i32 0, i32 0
  %21 = load i32, ptr %20, align 8
  %22 = mul nsw i32 2, %21
  br label %26

23:                                               ; preds = %10
  %24 = load i32, ptr %4, align 4
  %25 = add nsw i32 %24, 10
  br label %26

26:                                               ; preds = %23, %18
  %27 = phi i32 [ %22, %18 ], [ %25, %23 ]
  call void @Vec_AttGrow(ptr noundef %11, i32 noundef %27)
  br label %28

28:                                               ; preds = %26, %2
  %29 = load ptr, ptr %3, align 8
  %30 = getelementptr inbounds %struct.Vec_Att_t_, ptr %29, i32 0, i32 1
  %31 = load ptr, ptr %30, align 8
  %32 = load i32, ptr %4, align 4
  %33 = sext i32 %32 to i64
  %34 = getelementptr inbounds ptr, ptr %31, i64 %33
  %35 = load ptr, ptr %34, align 8
  %36 = icmp eq ptr %35, null
  br i1 %36, label %37, label %56

37:                                               ; preds = %28
  %38 = load ptr, ptr %3, align 8
  %39 = getelementptr inbounds %struct.Vec_Att_t_, ptr %38, i32 0, i32 4
  %40 = load ptr, ptr %39, align 8
  %41 = icmp ne ptr %40, null
  br i1 %41, label %42, label %56

42:                                               ; preds = %37
  %43 = load ptr, ptr %3, align 8
  %44 = getelementptr inbounds %struct.Vec_Att_t_, ptr %43, i32 0, i32 4
  %45 = load ptr, ptr %44, align 8
  %46 = load ptr, ptr %3, align 8
  %47 = getelementptr inbounds %struct.Vec_Att_t_, ptr %46, i32 0, i32 2
  %48 = load ptr, ptr %47, align 8
  %49 = call ptr %45(ptr noundef %48)
  %50 = load ptr, ptr %3, align 8
  %51 = getelementptr inbounds %struct.Vec_Att_t_, ptr %50, i32 0, i32 1
  %52 = load ptr, ptr %51, align 8
  %53 = load i32, ptr %4, align 4
  %54 = sext i32 %53 to i64
  %55 = getelementptr inbounds ptr, ptr %52, i64 %54
  store ptr %49, ptr %55, align 8
  br label %56

56:                                               ; preds = %42, %37, %28
  %57 = load ptr, ptr %3, align 8
  %58 = getelementptr inbounds %struct.Vec_Att_t_, ptr %57, i32 0, i32 1
  %59 = load ptr, ptr %58, align 8
  %60 = load i32, ptr %4, align 4
  %61 = sext i32 %60 to i64
  %62 = getelementptr inbounds ptr, ptr %59, i64 %61
  %63 = load ptr, ptr %62, align 8
  ret ptr %63
}

; Function Attrs: nounwind uwtable
define internal ptr @Abc_NtkGlobalBdd(ptr noundef %0) #0 {
  %2 = alloca ptr, align 8
  store ptr %0, ptr %2, align 8
  %3 = load ptr, ptr %2, align 8
  %4 = getelementptr inbounds %struct.Abc_Ntk_t_, ptr %3, i32 0, i32 53
  %5 = load ptr, ptr %4, align 8
  %6 = call ptr @Vec_PtrEntry(ptr noundef %5, i32 noundef 7)
  ret ptr %6
}

; Function Attrs: nounwind uwtable
define internal ptr @Vec_PtrEntry(ptr noundef %0, i32 noundef %1) #0 {
  %3 = alloca ptr, align 8
  %4 = alloca i32, align 4
  store ptr %0, ptr %3, align 8
  store i32 %1, ptr %4, align 4
  %5 = load ptr, ptr %3, align 8
  %6 = getelementptr inbounds %struct.Vec_Ptr_t_, ptr %5, i32 0, i32 2
  %7 = load ptr, ptr %6, align 8
  %8 = load i32, ptr %4, align 4
  %9 = sext i32 %8 to i64
  %10 = getelementptr inbounds ptr, ptr %7, i64 %9
  %11 = load ptr, ptr %10, align 8
  ret ptr %11
}

; Function Attrs: nounwind uwtable
define internal i32 @Vec_PtrSize(ptr noundef %0) #0 {
  %2 = alloca ptr, align 8
  store ptr %0, ptr %2, align 8
  %3 = load ptr, ptr %2, align 8
  %4 = getelementptr inbounds %struct.Vec_Ptr_t_, ptr %3, i32 0, i32 1
  %5 = load i32, ptr %4, align 4
  ret i32 %5
}

; Function Attrs: nounwind uwtable
define ptr @Abc_NtkBddDecInt(ptr noundef %0, ptr noundef %1, ptr noundef %2, i32 noundef %3, i32 noundef %4) #0 {
  %6 = alloca ptr, align 8
  %7 = alloca ptr, align 8
  %8 = alloca ptr, align 8
  %9 = alloca i32, align 4
  %10 = alloca i32, align 4
  store ptr %0, ptr %6, align 8
  store ptr %1, ptr %7, align 8
  store ptr %2, ptr %8, align 8
  store i32 %3, ptr %9, align 4
  store i32 %4, ptr %10, align 4
  %11 = load ptr, ptr %6, align 8
  %12 = load ptr, ptr %7, align 8
  %13 = load ptr, ptr %8, align 8
  %14 = load i32, ptr %9, align 4
  %15 = load i32, ptr %10, align 4
  %16 = load i32, ptr %10, align 4
  %17 = sub nsw i32 32, %16
  %18 = shl i32 1, %17
  %19 = xor i32 %18, -1
  %20 = load i32, ptr %10, align 4
  %21 = call ptr @Abc_NtkBddDecTry(ptr noundef %11, ptr noundef %12, ptr noundef %13, i32 noundef %14, i32 noundef %15, i32 noundef %19, i32 noundef %20)
  ret ptr %21
}

; Function Attrs: nounwind uwtable
define internal i32 @Abc_NtkCiNum(ptr noundef %0) #0 {
  %2 = alloca ptr, align 8
  store ptr %0, ptr %2, align 8
  %3 = load ptr, ptr %2, align 8
  %4 = getelementptr inbounds %struct.Abc_Ntk_t_, ptr %3, i32 0, i32 8
  %5 = load ptr, ptr %4, align 8
  %6 = call i32 @Vec_PtrSize(ptr noundef %5)
  ret i32 %6
}

; Function Attrs: nounwind uwtable
define internal ptr @Abc_ObjGlobalBdd(ptr noundef %0) #0 {
  %2 = alloca ptr, align 8
  store ptr %0, ptr %2, align 8
  %3 = load ptr, ptr %2, align 8
  %4 = getelementptr inbounds %struct.Abc_Obj_t_, ptr %3, i32 0, i32 0
  %5 = load ptr, ptr %4, align 8
  %6 = call ptr @Abc_NtkGlobalBdd(ptr noundef %5)
  %7 = load ptr, ptr %2, align 8
  %8 = getelementptr inbounds %struct.Abc_Obj_t_, ptr %7, i32 0, i32 2
  %9 = load i32, ptr %8, align 8
  %10 = call ptr @Vec_AttEntry(ptr noundef %6, i32 noundef %9)
  ret ptr %10
}

; Function Attrs: nounwind uwtable
define internal ptr @Abc_NtkCo(ptr noundef %0, i32 noundef %1) #0 {
  %3 = alloca ptr, align 8
  %4 = alloca i32, align 4
  store ptr %0, ptr %3, align 8
  store i32 %1, ptr %4, align 4
  %5 = load ptr, ptr %3, align 8
  %6 = getelementptr inbounds %struct.Abc_Ntk_t_, ptr %5, i32 0, i32 9
  %7 = load ptr, ptr %6, align 8
  %8 = load i32, ptr %4, align 4
  %9 = call ptr @Vec_PtrEntry(ptr noundef %7, i32 noundef %8)
  ret ptr %9
}

; Function Attrs: nounwind uwtable
define internal i32 @Abc_NtkCoNum(ptr noundef %0) #0 {
  %2 = alloca ptr, align 8
  store ptr %0, ptr %2, align 8
  %3 = load ptr, ptr %2, align 8
  %4 = getelementptr inbounds %struct.Abc_Ntk_t_, ptr %3, i32 0, i32 9
  %5 = load ptr, ptr %4, align 8
  %6 = call i32 @Vec_PtrSize(ptr noundef %5)
  ret i32 %6
}

; Function Attrs: nounwind uwtable
define ptr @Abc_NtkBddDec(ptr noundef %0, i32 noundef %1) #0 {
  %3 = alloca ptr, align 8
  %4 = alloca ptr, align 8
  %5 = alloca i32, align 4
  %6 = alloca i32, align 4
  %7 = alloca i32, align 4
  %8 = alloca i32, align 4
  %9 = alloca ptr, align 8
  %10 = alloca ptr, align 8
  %11 = alloca ptr, align 8
  %12 = alloca [256 x ptr], align 16
  %13 = alloca ptr, align 8
  %14 = alloca ptr, align 8
  %15 = alloca i32, align 4
  store ptr %0, ptr %4, align 8
  store i32 %1, ptr %5, align 4
  store i32 1000000, ptr %6, align 4
  store i32 0, ptr %7, align 4
  store i32 1, ptr %8, align 4
  %16 = load ptr, ptr %4, align 8
  %17 = load i32, ptr %6, align 4
  %18 = load i32, ptr %7, align 4
  %19 = load i32, ptr %8, align 4
  %20 = load i32, ptr %5, align 4
  %21 = call ptr @Abc_NtkBuildGlobalBdds(ptr noundef %16, i32 noundef %17, i32 noundef %18, i32 noundef %19, i32 noundef 0, i32 noundef %20)
  store ptr %21, ptr %11, align 8
  %22 = load ptr, ptr %11, align 8
  %23 = icmp eq ptr %22, null
  br i1 %23, label %24, label %25

24:                                               ; preds = %2
  call void (i32, ptr, ...) @Abc_Print(i32 noundef -1, ptr noundef @.str.13)
  store ptr null, ptr %3, align 8
  br label %92

25:                                               ; preds = %2
  store i32 0, ptr %15, align 4
  br label %26

26:                                               ; preds = %43, %25
  %27 = load i32, ptr %15, align 4
  %28 = load ptr, ptr %4, align 8
  %29 = call i32 @Abc_NtkCoNum(ptr noundef %28)
  %30 = icmp slt i32 %27, %29
  br i1 %30, label %31, label %35

31:                                               ; preds = %26
  %32 = load ptr, ptr %4, align 8
  %33 = load i32, ptr %15, align 4
  %34 = call ptr @Abc_NtkCo(ptr noundef %32, i32 noundef %33)
  store ptr %34, ptr %14, align 8
  br label %35

35:                                               ; preds = %31, %26
  %36 = phi i1 [ false, %26 ], [ true, %31 ]
  br i1 %36, label %37, label %46

37:                                               ; preds = %35
  %38 = load ptr, ptr %14, align 8
  %39 = call ptr @Abc_ObjGlobalBdd(ptr noundef %38)
  %40 = load i32, ptr %15, align 4
  %41 = sext i32 %40 to i64
  %42 = getelementptr inbounds [256 x ptr], ptr %12, i64 0, i64 %41
  store ptr %39, ptr %42, align 8
  br label %43

43:                                               ; preds = %37
  %44 = load i32, ptr %15, align 4
  %45 = add nsw i32 %44, 1
  store i32 %45, ptr %15, align 4
  br label %26, !llvm.loop !53

46:                                               ; preds = %35
  store i32 0, ptr %15, align 4
  br label %47

47:                                               ; preds = %58, %46
  %48 = load i32, ptr %15, align 4
  %49 = load ptr, ptr %4, align 8
  %50 = call i32 @Abc_NtkCoNum(ptr noundef %49)
  %51 = icmp slt i32 %48, %50
  br i1 %51, label %52, label %61

52:                                               ; preds = %47
  %53 = load ptr, ptr %11, align 8
  %54 = load ptr, ptr %11, align 8
  %55 = getelementptr inbounds %struct.DdManager, ptr %54, i32 0, i32 15
  %56 = load i32, ptr %55, align 8
  %57 = call ptr @Cudd_addNewVarAtLevel(ptr noundef %53, i32 noundef %56)
  br label %58

58:                                               ; preds = %52
  %59 = load i32, ptr %15, align 4
  %60 = add nsw i32 %59, 1
  store i32 %60, ptr %15, align 4
  br label %47, !llvm.loop !54

61:                                               ; preds = %47
  %62 = load ptr, ptr %4, align 8
  %63 = call i32 @Abc_NtkCiNum(ptr noundef %62)
  %64 = call ptr @Extra_ReorderInit(i32 noundef %63, i32 noundef 1000)
  store ptr %64, ptr %10, align 8
  %65 = load ptr, ptr %10, align 8
  call void @Extra_ReorderSetMinimizationType(ptr noundef %65, i32 noundef 1)
  %66 = load ptr, ptr %10, align 8
  call void @Extra_ReorderSetVerification(ptr noundef %66, i32 noundef 1)
  %67 = load ptr, ptr %10, align 8
  call void @Extra_ReorderSetVerbosity(ptr noundef %67, i32 noundef 1)
  %68 = load ptr, ptr %10, align 8
  %69 = load ptr, ptr %11, align 8
  %70 = getelementptr inbounds [256 x ptr], ptr %12, i64 0, i64 0
  %71 = load ptr, ptr %4, align 8
  %72 = call i32 @Abc_NtkCiNum(ptr noundef %71)
  %73 = load ptr, ptr %4, align 8
  %74 = call i32 @Abc_NtkCoNum(ptr noundef %73)
  %75 = call ptr @Abc_NtkBddDecInt(ptr noundef %68, ptr noundef %69, ptr noundef %70, i32 noundef %72, i32 noundef %74)
  store ptr %75, ptr %13, align 8
  %76 = load ptr, ptr %13, align 8
  call void @Cudd_Ref(ptr noundef %76)
  %77 = load ptr, ptr %10, align 8
  call void @Extra_ReorderQuit(ptr noundef %77)
  %78 = load ptr, ptr %11, align 8
  %79 = load ptr, ptr %13, align 8
  %80 = load ptr, ptr %11, align 8
  %81 = getelementptr inbounds %struct.DdManager, ptr %80, i32 0, i32 41
  %82 = load ptr, ptr %81, align 8
  %83 = load ptr, ptr %4, align 8
  %84 = call i32 @Abc_NtkCiNum(ptr noundef %83)
  call void @Abc_NtkExploreCofs(ptr noundef %78, ptr noundef %79, ptr noundef %82, i32 noundef %84, i32 noundef 6)
  %85 = load ptr, ptr %4, align 8
  %86 = call ptr @Abc_NtkDup(ptr noundef %85)
  store ptr %86, ptr %9, align 8
  %87 = load ptr, ptr %11, align 8
  %88 = load ptr, ptr %13, align 8
  call void @Cudd_RecursiveDeref(ptr noundef %87, ptr noundef %88)
  %89 = load ptr, ptr %4, align 8
  %90 = call ptr @Abc_NtkFreeGlobalBdds(ptr noundef %89, i32 noundef 1)
  %91 = load ptr, ptr %9, align 8
  store ptr %91, ptr %3, align 8
  br label %92

92:                                               ; preds = %61, %24
  %93 = load ptr, ptr %3, align 8
  ret ptr %93
}