; Function Attrs: nounwind uwtable
define ptr @Abc_NtkBddDec(ptr noundef %0, i32 noundef %1) local_unnamed_addr #0 {
  %3 = alloca [256 x ptr], align 16
  %4 = tail call ptr @Abc_NtkBuildGlobalBdds(ptr noundef %0, i32 noundef 1000000, i32 noundef 0, i32 noundef 1, i32 noundef 0, i32 noundef %1) #18
  %5 = icmp eq ptr %4, null
  br i1 %5, label %9, label %.preheader

.preheader:                                       ; preds = %2
  %6 = getelementptr i8, ptr %0, i64 64
  %.val4347 = load ptr, ptr %6, align 8
  %7 = getelementptr i8, ptr %.val4347, i64 4
  %.val43.val48 = load i32, ptr %7, align 4
  %8 = icmp sgt i32 %.val43.val48, 0
  br i1 %8, label %.lr.ph, label %.critedge._crit_edge

9:                                                ; preds = %2
  tail call void (i32, ptr, ...) @Abc_Print(i32 poison, ptr nonnull poison)
  br label %78

.critedge.preheader:                              ; preds = %Abc_ObjGlobalBdd.exit
  %10 = icmp sgt i32 %.val43.val, 0
  br i1 %10, label %.lr.ph54, label %.critedge._crit_edge

.lr.ph54:                                         ; preds = %.critedge.preheader
  %11 = getelementptr inbounds nuw i8, ptr %4, i64 136
  br label %.critedge

.lr.ph:                                           ; preds = %.preheader, %Abc_ObjGlobalBdd.exit
  %indvars.iv = phi i64 [ %indvars.iv.next, %Abc_ObjGlobalBdd.exit ], [ 0, %.preheader ]
  %.val4350 = phi ptr [ %.val43, %Abc_ObjGlobalBdd.exit ], [ %.val4347, %.preheader ]
  %12 = getelementptr i8, ptr %.val4350, i64 8
  %.val44.val = load ptr, ptr %12, align 8
  %13 = getelementptr inbounds nuw ptr, ptr %.val44.val, i64 %indvars.iv
  %14 = load ptr, ptr %13, align 8
  %.val45 = load ptr, ptr %14, align 8
  %15 = getelementptr i8, ptr %14, i64 16
  %.val46 = load i32, ptr %15, align 8
  %16 = getelementptr i8, ptr %.val45, i64 432
  %.val45.val = load ptr, ptr %16, align 8
  %17 = getelementptr i8, ptr %.val45.val, i64 8
  %.val45.val.val = load ptr, ptr %17, align 8
  %18 = getelementptr i8, ptr %.val45.val.val, i64 56
  %.val45.val.val.val = load ptr, ptr %18, align 8
  %19 = load i32, ptr %.val45.val.val.val, align 8
  %.not.i.i = icmp slt i32 %.val46, %19
  br i1 %.not.i.i, label %Vec_AttGrow.exit.i.i, label %20

20:                                               ; preds = %.lr.ph
  %21 = shl nsw i32 %19, 1
  %22 = icmp sgt i32 %21, %.val46
  %23 = add nsw i32 %.val46, 10
  %24 = select i1 %22, i32 %21, i32 %23
  %.not.i.i.i = icmp slt i32 %19, %24
  br i1 %.not.i.i.i, label %25, label %Vec_AttGrow.exit.i.i

25:                                               ; preds = %20
  %26 = getelementptr inbounds nuw i8, ptr %.val45.val.val.val, i64 8
  %27 = load ptr, ptr %26, align 8
  %.not13.i.i.i = icmp eq ptr %27, null
  %28 = sext i32 %24 to i64
  %29 = shl nsw i64 %28, 3
  br i1 %.not13.i.i.i, label %32, label %30

30:                                               ; preds = %25
  %31 = tail call ptr @realloc(ptr noundef nonnull %27, i64 noundef %29) #19
  %.pre.i.i.i = load i32, ptr %.val45.val.val.val, align 8
  br label %34

32:                                               ; preds = %25
  %33 = tail call noalias ptr @malloc(i64 noundef %29) #17
  br label %34

34:                                               ; preds = %32, %30
  %35 = phi i32 [ %.pre.i.i.i, %30 ], [ %19, %32 ]
  %36 = phi ptr [ %31, %30 ], [ %33, %32 ]
  store ptr %36, ptr %26, align 8
  %37 = sext i32 %35 to i64
  %38 = getelementptr inbounds ptr, ptr %36, i64 %37
  %39 = sub nsw i32 %24, %35
  %40 = sext i32 %39 to i64
  %41 = shl nsw i64 %40, 3
  tail call void @llvm.memset.p0.i64(ptr align 8 %38, i8 0, i64 %41, i1 false)
  store i32 %24, ptr %.val45.val.val.val, align 8
  br label %Vec_AttGrow.exit.i.i

Vec_AttGrow.exit.i.i:                             ; preds = %34, %20, %.lr.ph
  %42 = getelementptr inbounds nuw i8, ptr %.val45.val.val.val, i64 8
  %43 = load ptr, ptr %42, align 8
  %44 = sext i32 %.val46 to i64
  %45 = getelementptr inbounds ptr, ptr %43, i64 %44
  %46 = load ptr, ptr %45, align 8
  %47 = icmp eq ptr %46, null
  br i1 %47, label %48, label %Abc_ObjGlobalBdd.exit

48:                                               ; preds = %Vec_AttGrow.exit.i.i
  %49 = getelementptr inbounds nuw i8, ptr %.val45.val.val.val, i64 32
  %50 = load ptr, ptr %49, align 8
  %.not18.i.i = icmp eq ptr %50, null
  br i1 %.not18.i.i, label %Abc_ObjGlobalBdd.exit, label %51

51:                                               ; preds = %48
  %52 = getelementptr inbounds nuw i8, ptr %.val45.val.val.val, i64 16
  %53 = load ptr, ptr %52, align 8
  %54 = tail call ptr %50(ptr noundef %53) #18
  %55 = load ptr, ptr %42, align 8
  %56 = getelementptr inbounds ptr, ptr %55, i64 %44
  store ptr %54, ptr %56, align 8
  %.pre.i.i = load ptr, ptr %42, align 8
  %.phi.trans.insert.i.i = getelementptr inbounds ptr, ptr %.pre.i.i, i64 %44
  %.pre19.i.i = load ptr, ptr %.phi.trans.insert.i.i, align 8
  br label %Abc_ObjGlobalBdd.exit

Abc_ObjGlobalBdd.exit:                            ; preds = %Vec_AttGrow.exit.i.i, %48, %51
  %57 = phi ptr [ %.pre19.i.i, %51 ], [ null, %48 ], [ %46, %Vec_AttGrow.exit.i.i ]
  %58 = getelementptr inbounds nuw [256 x ptr], ptr %3, i64 0, i64 %indvars.iv
  store ptr %57, ptr %58, align 8
  %indvars.iv.next = add nuw nsw i64 %indvars.iv, 1
  %.val43 = load ptr, ptr %6, align 8
  %59 = getelementptr i8, ptr %.val43, i64 4
  %.val43.val = load i32, ptr %59, align 4
  %60 = sext i32 %.val43.val to i64
  %61 = icmp slt i64 %indvars.iv.next, %60
  br i1 %61, label %.lr.ph, label %.critedge.preheader, !llvm.loop !49

.critedge:                                        ; preds = %.lr.ph54, %.critedge
  %.153 = phi i32 [ 0, %.lr.ph54 ], [ %64, %.critedge ]
  %62 = load i32, ptr %11, align 8
  %63 = tail call ptr @Cudd_addNewVarAtLevel(ptr noundef nonnull %4, i32 noundef %62) #18
  %64 = add nuw nsw i32 %.153, 1
  %.val42 = load ptr, ptr %6, align 8
  %65 = getelementptr i8, ptr %.val42, i64 4
  %.val42.val = load i32, ptr %65, align 4
  %66 = icmp slt i32 %64, %.val42.val
  br i1 %66, label %.critedge, label %.critedge._crit_edge, !llvm.loop !50

.critedge._crit_edge:                             ; preds = %.critedge, %.preheader, %.critedge.preheader
  %67 = getelementptr i8, ptr %0, i64 56
  %.val40 = load ptr, ptr %67, align 8
  %68 = getelementptr i8, ptr %.val40, i64 4
  %.val40.val = load i32, ptr %68, align 4
  %69 = tail call ptr @Extra_ReorderInit(i32 noundef %.val40.val, i32 noundef 1000) #18
  tail call void @Extra_ReorderSetMinimizationType(ptr noundef %69, i32 noundef 1) #18
  tail call void @Extra_ReorderSetVerification(ptr noundef %69, i32 noundef 1) #18
  tail call void @Extra_ReorderSetVerbosity(ptr noundef %69, i32 noundef 1) #18
  %.val41 = load ptr, ptr %6, align 8
  %70 = getelementptr i8, ptr %.val41, i64 4
  %.val41.val = load i32, ptr %70, align 4
  %71 = sub nsw i32 32, %.val41.val
  %72 = shl nuw i32 1, %71
  %73 = xor i32 %72, -1
  %74 = call ptr @Abc_NtkBddDecCharFunc(ptr noundef nonnull %4, ptr noundef nonnull readonly %3, i32 noundef %.val41.val, i32 noundef %73, i32 poison)
  tail call void @Cudd_Ref(ptr noundef %74) #18
  tail call void @Cudd_Deref(ptr noundef %74) #18
  tail call void @Cudd_Ref(ptr noundef %74) #18
  tail call void @Extra_ReorderQuit(ptr noundef %69) #18
  %.val = load ptr, ptr %67, align 8
  %75 = getelementptr i8, ptr %.val, i64 4
  %.val.val = load i32, ptr %75, align 4
  tail call void @Abc_NtkExploreCofs(ptr noundef nonnull %4, ptr noundef %74, ptr poison, i32 noundef %.val.val, i32 noundef 6)
  %76 = tail call ptr @Abc_NtkDup(ptr noundef nonnull %0) #18
  tail call void @Cudd_RecursiveDeref(ptr noundef nonnull %4, ptr noundef %74) #18
  %77 = tail call ptr @Abc_NtkFreeGlobalBdds(ptr noundef nonnull %0, i32 noundef 1) #18
  br label %78

78:                                               ; preds = %.critedge._crit_edge, %9
  %.037 = phi ptr [ null, %9 ], [ %76, %.critedge._crit_edge ]
  ret ptr %.037
}